target datalayout = "e-m:e-p270:32:32-p271:32:32-p272:64:64-i64:64-i128:128-f80:128-n8:16:32:64-S128"
target triple = "x86_64-pc-linux-gnu"

%"class.Luau::AstNode.base" = type <{ ptr, i32, %"struct.Luau::Location" }>
%"struct.Luau::Location" = type { %"struct.Luau::Position", %"struct.Luau::Position" }
%"struct.Luau::Position" = type { i32, i32 }
%"class.Luau::AstNode" = type <{ ptr, i32, %"struct.Luau::Location", [4 x i8] }>
%"class.Luau::AstExprCall" = type <{ %"class.Luau::AstExpr.base", [4 x i8], ptr, %"struct.Luau::AstArray.304", i8, [3 x i8], %"struct.Luau::Location", [4 x i8] }>
%"class.Luau::AstExpr.base" = type { %"class.Luau::AstNode.base" }
%"struct.Luau::AstArray.304" = type { ptr, i64 }
%"class.Luau::AstExprGlobal" = type { %"class.Luau::AstExpr.base", %"struct.Luau::AstName" }
%"struct.Luau::AstName" = type { ptr }
%"class.Luau::AstExprConstantBool" = type { %"class.Luau::AstExpr.base", i8, [3 x i8] }

@_ZN4Luau7AstRttiINS_19AstExprConstantBoolEE5valueE = linkonce_odr dso_local global i32 0, comdat, align 4
@_ZN4Luau7AstRttiINS_13AstExprGlobalEE5valueE = linkonce_odr dso_local global i32 0, comdat, align 4
@.str.76 = private unnamed_addr constant [6 x i8] c"error\00", align 1
@.str.77 = private unnamed_addr constant [7 x i8] c"assert\00", align 1

; Function Attrs: mustprogress nounwind uwtable
define linkonce_odr dso_local noundef i32 @_ZN4Luau19AstExprConstantBool10ClassIndexEv() #2 comdat align 2 {
  %1 = load i32, ptr @_ZN4Luau7AstRttiINS_19AstExprConstantBoolEE5valueE, align 4, !tbaa !4
  ret i32 %1
}

; Function Attrs: mustprogress nounwind uwtable
define linkonce_odr dso_local noundef i32 @_ZN4Luau13AstExprGlobal10ClassIndexEv() #2 comdat align 2 {
  %1 = load i32, ptr @_ZN4Luau7AstRttiINS_13AstExprGlobalEE5valueE, align 4, !tbaa !4
  ret i32 %1
}

; Function Attrs: mustprogress uwtable
define linkonce_odr dso_local noundef ptr @_ZN4Luau7AstNode2asINS_19AstExprConstantBoolEEEPT_v(ptr noundef nonnull align 8 dereferenceable(28) %0) #7 comdat align 2 {
  %2 = alloca ptr, align 8
  store ptr %0, ptr %2, align 8, !tbaa !317
  %3 = load ptr, ptr %2, align 8
  %4 = getelementptr inbounds nuw %"class.Luau::AstNode", ptr %3, i32 0, i32 1
  %5 = load i32, ptr %4, align 8, !tbaa !319
  %6 = call noundef i32 @_ZN4Luau19AstExprConstantBool10ClassIndexEv()
  %7 = icmp eq i32 %5, %6
  br i1 %7, label %8, label %9

8:                                                ; preds = %1
  br label %10

9:                                                ; preds = %1
  br label %10

10:                                               ; preds = %9, %8
  %11 = phi ptr [ %3, %8 ], [ null, %9 ]
  ret ptr %11
}

; Function Attrs: mustprogress nounwind uwtable
define linkonce_odr dso_local noundef zeroext i1 @_ZNK4Luau7AstNameeqEPKc(ptr noundef nonnull align 8 dereferenceable(8) %0, ptr noundef %1) #2 comdat align 2 {
  %3 = alloca ptr, align 8
  %4 = alloca ptr, align 8
  store ptr %0, ptr %3, align 8, !tbaa !320
  store ptr %1, ptr %4, align 8, !tbaa !61
  %5 = load ptr, ptr %3, align 8
  %6 = getelementptr inbounds nuw %"struct.Luau::AstName", ptr %5, i32 0, i32 0
  %7 = load ptr, ptr %6, align 8, !tbaa !322
  %8 = icmp ne ptr %7, null
  br i1 %8, label %9, label %15

9:                                                ; preds = %2
  %10 = getelementptr inbounds nuw %"struct.Luau::AstName", ptr %5, i32 0, i32 0
  %11 = load ptr, ptr %10, align 8, !tbaa !322
  %12 = load ptr, ptr %4, align 8, !tbaa !61
  %13 = call i32 @strcmp(ptr noundef %11, ptr noundef %12) #25
  %14 = icmp eq i32 %13, 0
  br label %15

15:                                               ; preds = %9, %2
  %16 = phi i1 [ false, %2 ], [ %14, %9 ]
  ret i1 %16
}

; Function Attrs: mustprogress uwtable
define linkonce_odr dso_local noundef ptr @_ZN4Luau7AstNode2asINS_13AstExprGlobalEEEPT_v(ptr noundef nonnull align 8 dereferenceable(28) %0) #7 comdat align 2 {
  %2 = alloca ptr, align 8
  store ptr %0, ptr %2, align 8, !tbaa !317
  %3 = load ptr, ptr %2, align 8
  %4 = getelementptr inbounds nuw %"class.Luau::AstNode", ptr %3, i32 0, i32 1
  %5 = load i32, ptr %4, align 8, !tbaa !319
  %6 = call noundef i32 @_ZN4Luau13AstExprGlobal10ClassIndexEv()
  %7 = icmp eq i32 %5, %6
  br i1 %7, label %8, label %9

8:                                                ; preds = %1
  br label %10

9:                                                ; preds = %1
  br label %10

10:                                               ; preds = %9, %8
  %11 = phi ptr [ %3, %8 ], [ null, %9 ]
  ret ptr %11
}

; Function Attrs: mustprogress uwtable
define dso_local noundef zeroext i1 @_ZN4Luau12TypeChecker211isErrorCallEPKNS_11AstExprCallE(ptr noundef nonnull align 8 dereferenceable(784) %0, ptr noundef %1) #7 align 2 {
  %3 = alloca i1, align 1
  %4 = alloca ptr, align 8
  %5 = alloca ptr, align 8
  %6 = alloca ptr, align 8
  %7 = alloca i32, align 4
  %8 = alloca ptr, align 8
  store ptr %0, ptr %4, align 8, !tbaa !131
  store ptr %1, ptr %5, align 8, !tbaa !299
  call void @llvm.lifetime.start.p0(i64 8, ptr %6) #4
  %9 = load ptr, ptr %5, align 8, !tbaa !299
  %10 = getelementptr inbounds nuw %"class.Luau::AstExprCall", ptr %9, i32 0, i32 2
  %11 = load ptr, ptr %10, align 8, !tbaa !301
  %12 = call noundef ptr @_ZN4Luau7AstNode2asINS_13AstExprGlobalEEEPT_v(ptr noundef nonnull align 8 dereferenceable(28) %11)
  store ptr %12, ptr %6, align 8, !tbaa !308
  %13 = load ptr, ptr %6, align 8, !tbaa !308
  %14 = icmp ne ptr %13, null
  br i1 %14, label %16, label %15

15:                                               ; preds = %2
  store i1 false, ptr %3, align 1
  store i32 1, ptr %7, align 4
  br label %55

16:                                               ; preds = %2
  %17 = load ptr, ptr %6, align 8, !tbaa !308
  %18 = getelementptr inbounds nuw %"class.Luau::AstExprGlobal", ptr %17, i32 0, i32 1
  %19 = call noundef zeroext i1 @_ZNK4Luau7AstNameeqEPKc(ptr noundef nonnull align 8 dereferenceable(8) %18, ptr noundef @.str.76)
  br i1 %19, label %20, label %21

20:                                               ; preds = %16
  store i1 true, ptr %3, align 1
  store i32 1, ptr %7, align 4
  br label %55

21:                                               ; preds = %16
  %22 = load ptr, ptr %6, align 8, !tbaa !308
  %23 = getelementptr inbounds nuw %"class.Luau::AstExprGlobal", ptr %22, i32 0, i32 1
  %24 = call noundef zeroext i1 @_ZNK4Luau7AstNameeqEPKc(ptr noundef nonnull align 8 dereferenceable(8) %23, ptr noundef @.str.77)
  br i1 %24, label %25, label %53

25:                                               ; preds = %21
  %26 = load ptr, ptr %5, align 8, !tbaa !299
  %27 = getelementptr inbounds nuw %"class.Luau::AstExprCall", ptr %26, i32 0, i32 3
  %28 = getelementptr inbounds nuw %"struct.Luau::AstArray.304", ptr %27, i32 0, i32 1
  %29 = load i64, ptr %28, align 8, !tbaa !310
  %30 = icmp eq i64 %29, 0
  br i1 %30, label %31, label %32

31:                                               ; preds = %25
  store i1 true, ptr %3, align 1
  store i32 1, ptr %7, align 4
  br label %55

32:                                               ; preds = %25
  call void @llvm.lifetime.start.p0(i64 8, ptr %8) #4
  %33 = load ptr, ptr %5, align 8, !tbaa !299
  %34 = getelementptr inbounds nuw %"class.Luau::AstExprCall", ptr %33, i32 0, i32 3
  %35 = getelementptr inbounds nuw %"struct.Luau::AstArray.304", ptr %34, i32 0, i32 0
  %36 = load ptr, ptr %35, align 8, !tbaa !311
  %37 = getelementptr inbounds ptr, ptr %36, i64 0
  %38 = load ptr, ptr %37, align 8, !tbaa !312
  %39 = call noundef ptr @_ZN4Luau7AstNode2asINS_19AstExprConstantBoolEEEPT_v(ptr noundef nonnull align 8 dereferenceable(28) %38)
  store ptr %39, ptr %8, align 8, !tbaa !313
  %40 = load ptr, ptr %8, align 8, !tbaa !313
  %41 = icmp ne ptr %40, null
  br i1 %41, label %42, label %49

42:                                               ; preds = %32
  %43 = load ptr, ptr %8, align 8, !tbaa !313
  %44 = getelementptr inbounds nuw %"class.Luau::AstExprConstantBool", ptr %43, i32 0, i32 1
  %45 = load i8, ptr %44, align 4, !tbaa !315, !range !65, !noundef !66
  %46 = trunc i8 %45 to i1
  br i1 %46, label %48, label %47

47:                                               ; preds = %42
  store i1 true, ptr %3, align 1
  store i32 1, ptr %7, align 4
  br label %50

48:                                               ; preds = %42
  br label %49

49:                                               ; preds = %48, %32
  store i32 0, ptr %7, align 4
  br label %50

50:                                               ; preds = %49, %47
  call void @llvm.lifetime.end.p0(i64 8, ptr %8) #4
  %51 = load i32, ptr %7, align 4
  switch i32 %51, label %55 [
    i32 0, label %52
  ]

52:                                               ; preds = %50
  br label %53

53:                                               ; preds = %52, %21
  br label %54

54:                                               ; preds = %53
  store i1 false, ptr %3, align 1
  store i32 1, ptr %7, align 4
  br label %55

55:                                               ; preds = %54, %50, %31, %20, %15
  call void @llvm.lifetime.end.p0(i64 8, ptr %6) #4
  %56 = load i1, ptr %3, align 1
  ret i1 %56
}