; Function Attrs: mustprogress nofree nounwind willreturn memory(read, inaccessiblemem: none) uwtable
define dso_local noundef zeroext i1 @_ZN4Luau12TypeChecker211isErrorCallEPKNS_11AstExprCallE(ptr noundef nonnull readnone align 8 captures(none) dereferenceable(784) %0, ptr noundef readonly captures(none) %1) local_unnamed_addr #9 align 2 {
  %3 = getelementptr inbounds nuw i8, ptr %1, i64 32
  %4 = load ptr, ptr %3, align 8, !tbaa !235
  %5 = getelementptr inbounds nuw i8, ptr %4, i64 8
  %6 = load i32, ptr %5, align 8, !tbaa !244
  %7 = load i32, ptr @_ZN4Luau7AstRttiINS_13AstExprGlobalEE5valueE, align 4, !tbaa !4
  %8 = icmp ne i32 %6, %7
  %.not16 = icmp eq ptr %4, null
  %.not = or i1 %.not16, %8
  br i1 %.not, label %_ZNK4Luau7AstNameeqEPKc.exit14.thread, label %9

9:                                                ; preds = %2
  %10 = getelementptr inbounds nuw i8, ptr %4, i64 32
  %11 = load ptr, ptr %10, align 8, !tbaa !245
  %.not.i = icmp eq ptr %11, null
  br i1 %.not.i, label %_ZNK4Luau7AstNameeqEPKc.exit14.thread, label %_ZNK4Luau7AstNameeqEPKc.exit

_ZNK4Luau7AstNameeqEPKc.exit:                     ; preds = %9
  %12 = tail call i32 @strcmp(ptr noundef nonnull dereferenceable(1) %11, ptr noundef nonnull dereferenceable(6) @.str.76) #35
  %13 = icmp eq i32 %12, 0
  br i1 %13, label %_ZNK4Luau7AstNameeqEPKc.exit14.thread, label %_ZNK4Luau7AstNameeqEPKc.exit14

_ZNK4Luau7AstNameeqEPKc.exit14:                   ; preds = %_ZNK4Luau7AstNameeqEPKc.exit
  %14 = tail call i32 @strcmp(ptr noundef nonnull dereferenceable(1) %11, ptr noundef nonnull dereferenceable(7) @.str.77) #35
  %15 = icmp eq i32 %14, 0
  br i1 %15, label %16, label %_ZNK4Luau7AstNameeqEPKc.exit14.thread

16:                                               ; preds = %_ZNK4Luau7AstNameeqEPKc.exit14
  %17 = getelementptr inbounds nuw i8, ptr %1, i64 48
  %18 = load i64, ptr %17, align 8, !tbaa !247
  %19 = icmp eq i64 %18, 0
  br i1 %19, label %_ZNK4Luau7AstNameeqEPKc.exit14.thread, label %20

20:                                               ; preds = %16
  %21 = getelementptr inbounds nuw i8, ptr %1, i64 40
  %22 = load ptr, ptr %21, align 8, !tbaa !248
  %23 = load ptr, ptr %22, align 8, !tbaa !249
  %24 = getelementptr inbounds nuw i8, ptr %23, i64 8
  %25 = load i32, ptr %24, align 8, !tbaa !244
  %26 = load i32, ptr @_ZN4Luau7AstRttiINS_19AstExprConstantBoolEE5valueE, align 4, !tbaa !4
  %27 = icmp ne i32 %25, %26
  %.not1217 = icmp eq ptr %23, null
  %.not12 = or i1 %.not1217, %27
  br i1 %.not12, label %.critedge, label %28

28:                                               ; preds = %20
  %29 = getelementptr inbounds nuw i8, ptr %23, i64 28
  %30 = load i8, ptr %29, align 4, !tbaa !250, !range !83, !noundef !84
  %31 = trunc nuw i8 %30 to i1
  br i1 %31, label %.critedge, label %_ZNK4Luau7AstNameeqEPKc.exit14.thread

.critedge:                                        ; preds = %28, %20
  br label %_ZNK4Luau7AstNameeqEPKc.exit14.thread

_ZNK4Luau7AstNameeqEPKc.exit14.thread:            ; preds = %9, %_ZNK4Luau7AstNameeqEPKc.exit14, %.critedge, %28, %16, %_ZNK4Luau7AstNameeqEPKc.exit, %2
  %.0 = phi i1 [ false, %2 ], [ true, %_ZNK4Luau7AstNameeqEPKc.exit ], [ true, %16 ], [ true, %28 ], [ false, %.critedge ], [ false, %_ZNK4Luau7AstNameeqEPKc.exit14 ], [ false, %9 ]
  ret i1 %.0
}